(lp0
(S'cppflags'
p1
ccopy_reg
_reconstructor
p2
(cino.utils
SpaceList
p3
c__builtin__
list
p4
(lp5
S'-mmcu=atmega32u4'
p6
aS'-DF_CPU=16000000L'
p7
aS'-DARDUINO=105'
p8
aS'-I/usr/share/arduino/hardware/arduino/cores/arduino'
p9
aS'-ffunction-sections'
p10
aS'-fdata-sections'
p11
aS'-g'
p12
aS'-Os'
p13
aS'-w'
p14
aS'-DUSB_VID=0x2341'
p15
aS'-DUSB_PID=0x8036'
p16
aS'-I/usr/share/arduino/hardware/arduino/variants/leonardo'
p17
aS'-I/usr/share/arduino/hardware/arduino/cores/arduino'
p18
aS'-I/usr/share/arduino/hardware/arduino/cores/arduino/avr-libc'
p19
atp20
Rp21
tp22
a(S'cxx'
p23
S'/usr/share/arduino/hardware/tools/avr/bin/avr-g++'
p24
tp25
a(S'build_dir'
p26
S'.build/leonardo'
p27
tp28
a(S'avrdude'
p29
S'/usr/share/arduino/hardware/tools/avrdude'
p30
tp31
a(S'ar'
p32
S'/usr/share/arduino/hardware/tools/avr/bin/avr-ar'
p33
tp34
a(S'names'
p35
(dp36
S'cpp'
p37
S'%s.cpp'
p38
sS'obj'
p39
S'%s.o'
p40
sS'lib'
p41
S'lib%s.a'
p42
sS'deps'
p43
S'%s.d'
p44
stp45
a(S'ldflags'
p46
g2
(g3
g4
(lp47
g6
aS'-Wl,-Os'
p48
aS'-Wl,--gc-sections'
p49
atp50
Rp51
tp52
a(S'arduino_lib_version'
p53
g2
(cino.environment
Version
p54
c__builtin__
tuple
p55
(I1
I0
I5
tp56
tp57
Rp58
tp59
a(S'objcopy'
p60
S'/usr/share/arduino/hardware/tools/avr/bin/avr-objcopy'
p61
tp62
a(S'board_models'
p63
cino.environment
BoardModels
p64
((lp65
(lp66
S'uno'
p67
a(dp68
S'bootloader'
p69
(dp70
S'extended_fuses'
p71
S'0x05'
p72
sS'high_fuses'
p73
S'0xde'
p74
sS'low_fuses'
p75
S'0xff'
p76
sS'lock_bits'
p77
S'0x0F'
p78
sS'file'
p79
S'optiboot_atmega328.hex'
p80
sS'path'
p81
S'optiboot'
p82
sS'unlock_bits'
p83
S'0x3F'
p84
ssS'upload'
p85
(dp86
S'speed'
p87
S'115200'
p88
sS'maximum_size'
p89
S'32256'
p90
sS'protocol'
p91
S'arduino'
p92
ssS'name'
p93
S'Arduino Uno'
p94
sS'build'
p95
(dp96
S'core'
p97
S'arduino'
p98
sS'mcu'
p99
S'atmega328p'
p100
sS'f_cpu'
p101
S'16000000L'
p102
sS'variant'
p103
S'standard'
p104
ssaa(lp105
S'atmega328'
p106
a(dp107
S'bootloader'
p108
(dp109
S'extended_fuses'
p110
S'0x05'
p111
sS'high_fuses'
p112
S'0xDA'
p113
sS'low_fuses'
p114
S'0xFF'
p115
sS'lock_bits'
p116
S'0x0F'
p117
sS'file'
p118
S'ATmegaBOOT_168_atmega328.hex'
p119
sS'path'
p120
S'atmega'
p121
sS'unlock_bits'
p122
S'0x3F'
p123
ssS'upload'
p124
(dp125
S'speed'
p126
S'57600'
p127
sS'maximum_size'
p128
S'30720'
p129
sS'protocol'
p130
S'arduino'
p131
ssS'name'
p132
S'Arduino Duemilanove w/ ATmega328'
p133
sS'build'
p134
(dp135
S'core'
p136
S'arduino'
p137
sS'mcu'
p138
S'atmega328p'
p139
sS'f_cpu'
p140
S'16000000L'
p141
sS'variant'
p142
S'standard'
p143
ssaa(lp144
S'diecimila'
p145
a(dp146
S'bootloader'
p147
(dp148
S'extended_fuses'
p149
S'0x00'
p150
sS'high_fuses'
p151
S'0xdd'
p152
sS'low_fuses'
p153
S'0xff'
p154
sS'lock_bits'
p155
S'0x0F'
p156
sS'file'
p157
S'ATmegaBOOT_168_diecimila.hex'
p158
sS'path'
p159
S'atmega'
p160
sS'unlock_bits'
p161
S'0x3F'
p162
ssS'upload'
p163
(dp164
S'speed'
p165
S'19200'
p166
sS'maximum_size'
p167
S'14336'
p168
sS'protocol'
p169
S'arduino'
p170
ssS'name'
p171
S'Arduino Diecimila or Duemilanove w/ ATmega168'
p172
sS'build'
p173
(dp174
S'core'
p175
S'arduino'
p176
sS'mcu'
p177
S'atmega168'
p178
sS'f_cpu'
p179
S'16000000L'
p180
sS'variant'
p181
S'standard'
p182
ssaa(lp183
S'nano328'
p184
a(dp185
S'bootloader'
p186
(dp187
S'extended_fuses'
p188
S'0x05'
p189
sS'high_fuses'
p190
S'0xDA'
p191
sS'low_fuses'
p192
S'0xFF'
p193
sS'lock_bits'
p194
S'0x0F'
p195
sS'file'
p196
S'ATmegaBOOT_168_atmega328.hex'
p197
sS'path'
p198
S'atmega'
p199
sS'unlock_bits'
p200
S'0x3F'
p201
ssS'upload'
p202
(dp203
S'speed'
p204
S'57600'
p205
sS'maximum_size'
p206
S'30720'
p207
sS'protocol'
p208
S'arduino'
p209
ssS'name'
p210
S'Arduino Nano w/ ATmega328'
p211
sS'build'
p212
(dp213
S'core'
p214
S'arduino'
p215
sS'mcu'
p216
S'atmega328p'
p217
sS'f_cpu'
p218
S'16000000L'
p219
sS'variant'
p220
S'eightanaloginputs'
p221
ssaa(lp222
S'nano'
p223
a(dp224
S'bootloader'
p225
(dp226
S'extended_fuses'
p227
S'0x00'
p228
sS'high_fuses'
p229
S'0xdd'
p230
sS'low_fuses'
p231
S'0xff'
p232
sS'lock_bits'
p233
S'0x0F'
p234
sS'file'
p235
S'ATmegaBOOT_168_diecimila.hex'
p236
sS'path'
p237
S'atmega'
p238
sS'unlock_bits'
p239
S'0x3F'
p240
ssS'upload'
p241
(dp242
S'speed'
p243
S'19200'
p244
sS'maximum_size'
p245
S'14336'
p246
sS'protocol'
p247
S'arduino'
p248
ssS'name'
p249
S'Arduino Nano w/ ATmega168'
p250
sS'build'
p251
(dp252
S'core'
p253
S'arduino'
p254
sS'mcu'
p255
S'atmega168'
p256
sS'f_cpu'
p257
S'16000000L'
p258
sS'variant'
p259
S'eightanaloginputs'
p260
ssaa(lp261
S'mega2560'
p262
a(dp263
S'bootloader'
p264
(dp265
S'extended_fuses'
p266
S'0xFD'
p267
sS'high_fuses'
p268
S'0xD8'
p269
sS'low_fuses'
p270
S'0xFF'
p271
sS'lock_bits'
p272
S'0x0F'
p273
sS'file'
p274
S'stk500boot_v2_mega2560.hex'
p275
sS'path'
p276
S'stk500v2'
p277
sS'unlock_bits'
p278
S'0x3F'
p279
ssS'upload'
p280
(dp281
S'speed'
p282
S'115200'
p283
sS'maximum_size'
p284
S'258048'
p285
sS'protocol'
p286
S'wiring'
p287
ssS'name'
p288
S'Arduino Mega 2560 or Mega ADK'
p289
sS'build'
p290
(dp291
S'core'
p292
S'arduino'
p293
sS'mcu'
p294
S'atmega2560'
p295
sS'f_cpu'
p296
S'16000000L'
p297
sS'variant'
p298
S'mega'
p299
ssaa(lp300
S'mega'
p301
a(dp302
S'bootloader'
p303
(dp304
S'extended_fuses'
p305
S'0xF5'
p306
sS'high_fuses'
p307
S'0xDA'
p308
sS'low_fuses'
p309
S'0xFF'
p310
sS'lock_bits'
p311
S'0x0F'
p312
sS'file'
p313
S'ATmegaBOOT_168_atmega1280.hex'
p314
sS'path'
p315
S'atmega'
p316
sS'unlock_bits'
p317
S'0x3F'
p318
ssS'upload'
p319
(dp320
S'speed'
p321
S'57600'
p322
sS'maximum_size'
p323
S'126976'
p324
sS'protocol'
p325
S'arduino'
p326
ssS'name'
p327
S'Arduino Mega (ATmega1280)'
p328
sS'build'
p329
(dp330
S'core'
p331
S'arduino'
p332
sS'mcu'
p333
S'atmega1280'
p334
sS'f_cpu'
p335
S'16000000L'
p336
sS'variant'
p337
S'mega'
p338
ssaa(lp339
S'leonardo'
p340
a(dp341
S'bootloader'
p342
(dp343
S'extended_fuses'
p344
S'0xcb'
p345
sS'high_fuses'
p346
S'0xd8'
p347
sS'low_fuses'
p348
S'0xff'
p349
sS'lock_bits'
p350
S'0x2F'
p351
sS'file'
p352
S'Caterina-Leonardo.hex'
p353
sS'path'
p354
S'caterina'
p355
sS'unlock_bits'
p356
S'0x3F'
p357
ssS'upload'
p358
(dp359
S'speed'
p360
S'57600'
p361
sS'maximum_size'
p362
S'28672'
p363
sS'protocol'
p364
S'avr109'
p365
sS'disable_flushing'
p366
S'true'
p367
ssS'name'
p368
S'Arduino Leonardo'
p369
sS'build'
p370
(dp371
S'core'
p372
S'arduino'
p373
sS'f_cpu'
p374
S'16000000L'
p375
sS'vid'
p376
S'0x2341'
p377
sS'pid'
p378
S'0x8036'
p379
sS'variant'
p380
S'leonardo'
p381
sS'mcu'
p382
S'atmega32u4'
p383
ssaa(lp384
S'esplora'
p385
a(dp386
S'bootloader'
p387
(dp388
S'extended_fuses'
p389
S'0xcb'
p390
sS'high_fuses'
p391
S'0xd8'
p392
sS'low_fuses'
p393
S'0xff'
p394
sS'lock_bits'
p395
S'0x2F'
p396
sS'file'
p397
S'Caterina-Esplora.hex'
p398
sS'path'
p399
S'caterina'
p400
sS'unlock_bits'
p401
S'0x3F'
p402
ssS'upload'
p403
(dp404
S'speed'
p405
S'57600'
p406
sS'maximum_size'
p407
S'28672'
p408
sS'protocol'
p409
S'avr109'
p410
sS'disable_flushing'
p411
S'true'
p412
ssS'name'
p413
S'Arduino Esplora'
p414
sS'build'
p415
(dp416
S'core'
p417
S'arduino'
p418
sS'f_cpu'
p419
S'16000000L'
p420
sS'vid'
p421
S'0x2341'
p422
sS'pid'
p423
S'0x803C'
p424
sS'variant'
p425
S'leonardo'
p426
sS'mcu'
p427
S'atmega32u4'
p428
ssaa(lp429
S'micro'
p430
a(dp431
S'bootloader'
p432
(dp433
S'extended_fuses'
p434
S'0xcb'
p435
sS'high_fuses'
p436
S'0xd8'
p437
sS'low_fuses'
p438
S'0xff'
p439
sS'lock_bits'
p440
S'0x2F'
p441
sS'file'
p442
S'Caterina-Micro.hex'
p443
sS'path'
p444
S'caterina'
p445
sS'unlock_bits'
p446
S'0x3F'
p447
ssS'upload'
p448
(dp449
S'speed'
p450
S'57600'
p451
sS'maximum_size'
p452
S'28672'
p453
sS'protocol'
p454
S'avr109'
p455
sS'disable_flushing'
p456
S'true'
p457
ssS'name'
p458
S'Arduino Micro'
p459
sS'build'
p460
(dp461
S'core'
p462
S'arduino'
p463
sS'f_cpu'
p464
S'16000000L'
p465
sS'vid'
p466
S'0x2341'
p467
sS'pid'
p468
S'0x8037'
p469
sS'variant'
p470
S'micro'
p471
sS'mcu'
p472
S'atmega32u4'
p473
ssaa(lp474
S'mini328'
p475
a(dp476
S'bootloader'
p477
(dp478
S'extended_fuses'
p479
S'0x05'
p480
sS'high_fuses'
p481
S'0xd8'
p482
sS'low_fuses'
p483
S'0xff'
p484
sS'lock_bits'
p485
S'0x0F'
p486
sS'file'
p487
S'optiboot_atmega328-Mini.hex'
p488
sS'path'
p489
S'optiboot'
p490
sS'unlock_bits'
p491
S'0x3F'
p492
ssS'upload'
p493
(dp494
S'speed'
p495
S'115200'
p496
sS'maximum_size'
p497
S'28672'
p498
sS'protocol'
p499
S'arduino'
p500
ssS'name'
p501
S'Arduino Mini w/ ATmega328'
p502
sS'build'
p503
(dp504
S'core'
p505
S'arduino'
p506
sS'mcu'
p507
S'atmega328p'
p508
sS'f_cpu'
p509
S'16000000L'
p510
sS'variant'
p511
S'eightanaloginputs'
p512
ssaa(lp513
S'mini'
p514
a(dp515
S'bootloader'
p516
(dp517
S'extended_fuses'
p518
S'0x00'
p519
sS'high_fuses'
p520
S'0xdd'
p521
sS'low_fuses'
p522
S'0xff'
p523
sS'lock_bits'
p524
S'0x0F'
p525
sS'file'
p526
S'ATmegaBOOT_168_ng.hex'
p527
sS'path'
p528
S'atmega'
p529
sS'unlock_bits'
p530
S'0x3F'
p531
ssS'upload'
p532
(dp533
S'speed'
p534
S'19200'
p535
sS'maximum_size'
p536
S'14336'
p537
sS'protocol'
p538
S'arduino'
p539
ssS'name'
p540
S'Arduino Mini w/ ATmega168'
p541
sS'build'
p542
(dp543
S'core'
p544
S'arduino'
p545
sS'mcu'
p546
S'atmega168'
p547
sS'f_cpu'
p548
S'16000000L'
p549
sS'variant'
p550
S'eightanaloginputs'
p551
ssaa(lp552
S'ethernet'
p553
a(dp554
S'bootloader'
p555
(dp556
S'extended_fuses'
p557
S'0x05'
p558
sS'high_fuses'
p559
S'0xde'
p560
sS'low_fuses'
p561
S'0xff'
p562
sS'lock_bits'
p563
S'0x0F'
p564
sS'file'
p565
S'optiboot_atmega328.hex'
p566
sS'path'
p567
S'optiboot'
p568
sS'unlock_bits'
p569
S'0x3F'
p570
ssS'upload'
p571
(dp572
S'speed'
p573
S'115200'
p574
sS'maximum_size'
p575
S'32256'
p576
sS'protocol'
p577
S'arduino'
p578
ssS'name'
p579
S'Arduino Ethernet'
p580
sS'build'
p581
(dp582
S'f_cpu'
p583
S'16000000L'
p584
sS'mcu'
p585
S'atmega328p'
p586
sS'variant'
p587
S'standard'
p588
sS'core'
p589
S'arduino'
p590
ssaa(lp591
S'fio'
p592
a(dp593
S'bootloader'
p594
(dp595
S'extended_fuses'
p596
S'0x05'
p597
sS'high_fuses'
p598
S'0xDA'
p599
sS'low_fuses'
p600
S'0xFF'
p601
sS'lock_bits'
p602
S'0x0F'
p603
sS'file'
p604
S'ATmegaBOOT_168_atmega328_pro_8MHz.hex'
p605
sS'path'
p606
S'arduino:atmega'
p607
sS'unlock_bits'
p608
S'0x3F'
p609
ssS'upload'
p610
(dp611
S'speed'
p612
S'57600'
p613
sS'maximum_size'
p614
S'30720'
p615
sS'protocol'
p616
S'arduino'
p617
ssS'name'
p618
S'Arduino Fio'
p619
sS'build'
p620
(dp621
S'core'
p622
S'arduino'
p623
sS'mcu'
p624
S'atmega328p'
p625
sS'f_cpu'
p626
S'8000000L'
p627
sS'variant'
p628
S'eightanaloginputs'
p629
ssaa(lp630
S'bt328'
p631
a(dp632
S'bootloader'
p633
(dp634
S'extended_fuses'
p635
S'0x05'
p636
sS'high_fuses'
p637
S'0xd8'
p638
sS'low_fuses'
p639
S'0xff'
p640
sS'lock_bits'
p641
S'0x0F'
p642
sS'file'
p643
S'ATmegaBOOT_168_atmega328_bt.hex'
p644
sS'path'
p645
S'bt'
p646
sS'unlock_bits'
p647
S'0x3F'
p648
ssS'upload'
p649
(dp650
S'speed'
p651
S'19200'
p652
sS'maximum_size'
p653
S'28672'
p654
sS'protocol'
p655
S'arduino'
p656
sS'disable_flushing'
p657
S'true'
p658
ssS'name'
p659
S'Arduino BT w/ ATmega328'
p660
sS'build'
p661
(dp662
S'core'
p663
S'arduino'
p664
sS'mcu'
p665
S'atmega328p'
p666
sS'f_cpu'
p667
S'16000000L'
p668
sS'variant'
p669
S'eightanaloginputs'
p670
ssaa(lp671
S'bt'
p672
a(dp673
S'bootloader'
p674
(dp675
S'extended_fuses'
p676
S'0x00'
p677
sS'high_fuses'
p678
S'0xdd'
p679
sS'low_fuses'
p680
S'0xff'
p681
sS'lock_bits'
p682
S'0x0F'
p683
sS'file'
p684
S'ATmegaBOOT_168.hex'
p685
sS'path'
p686
S'bt'
p687
sS'unlock_bits'
p688
S'0x3F'
p689
ssS'upload'
p690
(dp691
S'speed'
p692
S'19200'
p693
sS'maximum_size'
p694
S'14336'
p695
sS'protocol'
p696
S'arduino'
p697
sS'disable_flushing'
p698
S'true'
p699
ssS'name'
p700
S'Arduino BT w/ ATmega168'
p701
sS'build'
p702
(dp703
S'core'
p704
S'arduino'
p705
sS'mcu'
p706
S'atmega168'
p707
sS'f_cpu'
p708
S'16000000L'
p709
sS'variant'
p710
S'eightanaloginputs'
p711
ssaa(lp712
S'LilyPadUSB'
p713
a(dp714
S'bootloader'
p715
(dp716
S'extended_fuses'
p717
S'0xce'
p718
sS'high_fuses'
p719
S'0xd8'
p720
sS'low_fuses'
p721
S'0xff'
p722
sS'lock_bits'
p723
S'0x2F'
p724
sS'file'
p725
S'Caterina-LilyPadUSB.hex'
p726
sS'path'
p727
S'caterina-LilyPadUSB'
p728
sS'unlock_bits'
p729
S'0x3F'
p730
ssS'upload'
p731
(dp732
S'speed'
p733
S'57600'
p734
sS'maximum_size'
p735
S'28672'
p736
sS'protocol'
p737
S'avr109'
p738
sS'disable_flushing'
p739
S'true'
p740
ssS'name'
p741
S'LilyPad Arduino USB'
p742
sS'build'
p743
(dp744
S'core'
p745
S'arduino'
p746
sS'f_cpu'
p747
S'8000000L'
p748
sS'vid'
p749
S'0x1B4F'
p750
sS'pid'
p751
S'0x9208'
p752
sS'variant'
p753
S'leonardo'
p754
sS'mcu'
p755
S'atmega32u4'
p756
ssaa(lp757
S'lilypad328'
p758
a(dp759
S'bootloader'
p760
(dp761
S'extended_fuses'
p762
S'0x05'
p763
sS'high_fuses'
p764
S'0xDA'
p765
sS'low_fuses'
p766
S'0xFF'
p767
sS'lock_bits'
p768
S'0x0F'
p769
sS'file'
p770
S'ATmegaBOOT_168_atmega328_pro_8MHz.hex'
p771
sS'path'
p772
S'atmega'
p773
sS'unlock_bits'
p774
S'0x3F'
p775
ssS'upload'
p776
(dp777
S'speed'
p778
S'57600'
p779
sS'maximum_size'
p780
S'30720'
p781
sS'protocol'
p782
S'arduino'
p783
ssS'name'
p784
S'LilyPad Arduino w/ ATmega328'
p785
sS'build'
p786
(dp787
S'core'
p788
S'arduino'
p789
sS'mcu'
p790
S'atmega328p'
p791
sS'f_cpu'
p792
S'8000000L'
p793
sS'variant'
p794
S'standard'
p795
ssaa(lp796
S'lilypad'
p797
a(dp798
S'bootloader'
p799
(dp800
S'extended_fuses'
p801
S'0x00'
p802
sS'high_fuses'
p803
S'0xdd'
p804
sS'low_fuses'
p805
S'0xe2'
p806
sS'lock_bits'
p807
S'0x0F'
p808
sS'file'
p809
S'LilyPadBOOT_168.hex'
p810
sS'path'
p811
S'lilypad'
p812
sS'unlock_bits'
p813
S'0x3F'
p814
ssS'upload'
p815
(dp816
S'speed'
p817
S'19200'
p818
sS'maximum_size'
p819
S'14336'
p820
sS'protocol'
p821
S'arduino'
p822
ssS'name'
p823
S'LilyPad Arduino w/ ATmega168'
p824
sS'build'
p825
(dp826
S'core'
p827
S'arduino'
p828
sS'mcu'
p829
S'atmega168'
p830
sS'f_cpu'
p831
S'8000000L'
p832
sS'variant'
p833
S'standard'
p834
ssaa(lp835
S'pro5v328'
p836
a(dp837
S'bootloader'
p838
(dp839
S'extended_fuses'
p840
S'0x05'
p841
sS'high_fuses'
p842
S'0xDA'
p843
sS'low_fuses'
p844
S'0xFF'
p845
sS'lock_bits'
p846
S'0x0F'
p847
sS'file'
p848
S'ATmegaBOOT_168_atmega328.hex'
p849
sS'path'
p850
S'atmega'
p851
sS'unlock_bits'
p852
S'0x3F'
p853
ssS'upload'
p854
(dp855
S'speed'
p856
S'57600'
p857
sS'maximum_size'
p858
S'30720'
p859
sS'protocol'
p860
S'arduino'
p861
ssS'name'
p862
S'Arduino Pro or Pro Mini (5V, 16 MHz) w/ ATmega328'
p863
sS'build'
p864
(dp865
S'core'
p866
S'arduino'
p867
sS'mcu'
p868
S'atmega328p'
p869
sS'f_cpu'
p870
S'16000000L'
p871
sS'variant'
p872
S'standard'
p873
ssaa(lp874
S'pro5v'
p875
a(dp876
S'bootloader'
p877
(dp878
S'extended_fuses'
p879
S'0x00'
p880
sS'high_fuses'
p881
S'0xdd'
p882
sS'low_fuses'
p883
S'0xff'
p884
sS'lock_bits'
p885
S'0x0F'
p886
sS'file'
p887
S'ATmegaBOOT_168_diecimila.hex'
p888
sS'path'
p889
S'atmega'
p890
sS'unlock_bits'
p891
S'0x3F'
p892
ssS'upload'
p893
(dp894
S'speed'
p895
S'19200'
p896
sS'maximum_size'
p897
S'14336'
p898
sS'protocol'
p899
S'arduino'
p900
ssS'name'
p901
S'Arduino Pro or Pro Mini (5V, 16 MHz) w/ ATmega168'
p902
sS'build'
p903
(dp904
S'core'
p905
S'arduino'
p906
sS'mcu'
p907
S'atmega168'
p908
sS'f_cpu'
p909
S'16000000L'
p910
sS'variant'
p911
S'standard'
p912
ssaa(lp913
S'pro328'
p914
a(dp915
S'bootloader'
p916
(dp917
S'extended_fuses'
p918
S'0x05'
p919
sS'high_fuses'
p920
S'0xDA'
p921
sS'low_fuses'
p922
S'0xFF'
p923
sS'lock_bits'
p924
S'0x0F'
p925
sS'file'
p926
S'ATmegaBOOT_168_atmega328_pro_8MHz.hex'
p927
sS'path'
p928
S'atmega'
p929
sS'unlock_bits'
p930
S'0x3F'
p931
ssS'upload'
p932
(dp933
S'speed'
p934
S'57600'
p935
sS'maximum_size'
p936
S'30720'
p937
sS'protocol'
p938
S'arduino'
p939
ssS'name'
p940
S'Arduino Pro or Pro Mini (3.3V, 8 MHz) w/ ATmega328'
p941
sS'build'
p942
(dp943
S'core'
p944
S'arduino'
p945
sS'mcu'
p946
S'atmega328p'
p947
sS'f_cpu'
p948
S'8000000L'
p949
sS'variant'
p950
S'standard'
p951
ssaa(lp952
S'pro'
p953
a(dp954
S'bootloader'
p955
(dp956
S'extended_fuses'
p957
S'0x00'
p958
sS'high_fuses'
p959
S'0xdd'
p960
sS'low_fuses'
p961
S'0xc6'
p962
sS'lock_bits'
p963
S'0x0F'
p964
sS'file'
p965
S'ATmegaBOOT_168_pro_8MHz.hex'
p966
sS'path'
p967
S'atmega'
p968
sS'unlock_bits'
p969
S'0x3F'
p970
ssS'upload'
p971
(dp972
S'speed'
p973
S'19200'
p974
sS'maximum_size'
p975
S'14336'
p976
sS'protocol'
p977
S'arduino'
p978
ssS'name'
p979
S'Arduino Pro or Pro Mini (3.3V, 8 MHz) w/ ATmega168'
p980
sS'build'
p981
(dp982
S'core'
p983
S'arduino'
p984
sS'mcu'
p985
S'atmega168'
p986
sS'f_cpu'
p987
S'8000000L'
p988
sS'variant'
p989
S'standard'
p990
ssaa(lp991
S'atmega168'
p992
a(dp993
S'bootloader'
p994
(dp995
S'extended_fuses'
p996
S'0x00'
p997
sS'high_fuses'
p998
S'0xdd'
p999
sS'low_fuses'
p1000
S'0xff'
p1001
sS'lock_bits'
p1002
S'0x0F'
p1003
sS'file'
p1004
S'ATmegaBOOT_168_ng.hex'
p1005
sS'path'
p1006
S'atmega'
p1007
sS'unlock_bits'
p1008
S'0x3F'
p1009
ssS'upload'
p1010
(dp1011
S'speed'
p1012
S'19200'
p1013
sS'maximum_size'
p1014
S'14336'
p1015
sS'protocol'
p1016
S'arduino'
p1017
ssS'name'
p1018
S'Arduino NG or older w/ ATmega168'
p1019
sS'build'
p1020
(dp1021
S'core'
p1022
S'arduino'
p1023
sS'mcu'
p1024
S'atmega168'
p1025
sS'f_cpu'
p1026
S'16000000L'
p1027
sS'variant'
p1028
S'standard'
p1029
ssaa(lp1030
S'atmega8'
p1031
a(dp1032
S'bootloader'
p1033
(dp1034
S'high_fuses'
p1035
S'0xca'
p1036
sS'low_fuses'
p1037
S'0xdf'
p1038
sS'lock_bits'
p1039
S'0x0F'
p1040
sS'file'
p1041
S'ATmegaBOOT-prod-firmware-2009-11-07.hex'
p1042
sS'path'
p1043
S'atmega8'
p1044
sS'unlock_bits'
p1045
S'0x3F'
p1046
ssS'upload'
p1047
(dp1048
S'speed'
p1049
S'19200'
p1050
sS'maximum_size'
p1051
S'7168'
p1052
sS'protocol'
p1053
S'arduino'
p1054
ssS'name'
p1055
S'Arduino NG or older w/ ATmega8'
p1056
sS'build'
p1057
(dp1058
S'core'
p1059
S'arduino'
p1060
sS'mcu'
p1061
S'atmega8'
p1062
sS'f_cpu'
p1063
S'16000000L'
p1064
sS'variant'
p1065
S'standard'
p1066
ssaa(lp1067
S'robotControl'
p1068
a(dp1069
S'bootloader'
p1070
(dp1071
S'extended_fuses'
p1072
S'0xcb'
p1073
sS'high_fuses'
p1074
S'0xd8'
p1075
sS'low_fuses'
p1076
S'0xff'
p1077
sS'lock_bits'
p1078
S'0x2F'
p1079
sS'file'
p1080
S'Caterina-Robot-Control.hex'
p1081
sS'path'
p1082
S'caterina-Arduino_Robot'
p1083
sS'unlock_bits'
p1084
S'0x3F'
p1085
ssS'upload'
p1086
(dp1087
S'speed'
p1088
S'57600'
p1089
sS'maximum_size'
p1090
S'28672'
p1091
sS'protocol'
p1092
S'avr109'
p1093
sS'disable_flushing'
p1094
S'true'
p1095
ssS'name'
p1096
S'Arduino Robot Control'
p1097
sS'build'
p1098
(dp1099
S'core'
p1100
S'robot'
p1101
sS'f_cpu'
p1102
S'16000000L'
p1103
sS'vid'
p1104
S'0x2341'
p1105
sS'pid'
p1106
S'0x8038'
p1107
sS'variant'
p1108
S'robot_control'
p1109
sS'mcu'
p1110
S'atmega32u4'
p1111
ssaa(lp1112
S'robotMotor'
p1113
a(dp1114
S'bootloader'
p1115
(dp1116
S'extended_fuses'
p1117
S'0xcb'
p1118
sS'high_fuses'
p1119
S'0xd8'
p1120
sS'low_fuses'
p1121
S'0xff'
p1122
sS'lock_bits'
p1123
S'0x2F'
p1124
sS'file'
p1125
S'Caterina-Robot-Motor.hex'
p1126
sS'path'
p1127
S'caterina-Arduino_Robot'
p1128
sS'unlock_bits'
p1129
S'0x3F'
p1130
ssS'upload'
p1131
(dp1132
S'speed'
p1133
S'57600'
p1134
sS'maximum_size'
p1135
S'28672'
p1136
sS'protocol'
p1137
S'avr109'
p1138
sS'disable_flushing'
p1139
S'true'
p1140
ssS'name'
p1141
S'Arduino Robot Motor'
p1142
sS'build'
p1143
(dp1144
S'core'
p1145
S'robot'
p1146
sS'f_cpu'
p1147
S'16000000L'
p1148
sS'vid'
p1149
S'0x2341'
p1150
sS'pid'
p1151
S'0x8039'
p1152
sS'variant'
p1153
S'robot_motor'
p1154
sS'mcu'
p1155
S'atmega32u4'
p1156
ssaatp1157
Rp1158
(dp1159
S'default'
p1160
S'uno'
p1161
sbtp1162
a(S'used_libs'
p1163
(lp1164
S'/usr/share/arduino/hardware/arduino/cores/arduino'
p1165
atp1166
a(S'make'
p1167
S'/usr/share/arduino/hardware/tools/avr/bin/make'
p1168
tp1169
a(S'arduino_libraries_dir'
p1170
S'/usr/share/arduino/libraries'
p1171
tp1172
a(S'cc'
p1173
S'/usr/share/arduino/hardware/tools/avr/bin/avr-gcc'
p1174
tp1175
a(S'cflags'
p1176
g2
(g3
g4
(lp1177
tp1178
Rp1179
tp1180
a(S'cxxflags'
p1181
g2
(g3
g4
(lp1182
S'-fno-exceptions'
p1183
atp1184
Rp1185
tp1186
a(S'arduino_variants_dir'
p1187
S'/usr/share/arduino/hardware/arduino/variants'
p1188
tp1189
a(S'stty'
p1190
S'/bin/stty'
p1191
tp1192
a(S'version.txt'
p1193
S'/usr/share/arduino/lib/version.txt'
p1194
tp1195
a(S'arduino_core_dir'
p1196
g1165
tp1197
a(S'boards.txt'
p1198
S'/usr/share/arduino/hardware/arduino/boards.txt'
p1199
tp1200
a(S'avrdude.conf'
p1201
S'/usr/share/arduino/hardware/tools/avrdude.conf'
p1202
tp1203
a(S'deps'
p1204
g2
(g3
g4
(lp1205
S'.build/leonardo/src/dependencies.d'
p1206
aS'.build/leonardo/arduino/dependencies.d'
p1207
atp1208
Rp1209
tp1210
a.